target datalayout = "e-m:e-p270:32:32-p271:32:32-p272:64:64-i64:64-i128:128-f80:128-n8:16:32:64-S128"
target triple = "x86_64-pc-linux-gnu"

%struct.jv = type { i8, i8, i16, i32, %union.anon }
%union.anon = type { ptr }

; Function Attrs: nounwind uwtable
define dso_local { i64, ptr } @jq_realpath(i64 %0, ptr %1) #0 {
  %3 = alloca %struct.jv, align 8
  %4 = alloca %struct.jv, align 8
  %5 = alloca i32, align 4
  %6 = alloca ptr, align 8
  %7 = alloca ptr, align 8
  %8 = alloca i32, align 4
  %9 = alloca %struct.jv, align 8
  %10 = getelementptr inbounds nuw { i64, ptr }, ptr %4, i32 0, i32 0
  store i64 %0, ptr %10, align 8
  %11 = getelementptr inbounds nuw { i64, ptr }, ptr %4, i32 0, i32 1
  store ptr %1, ptr %11, align 8
  call void @llvm.lifetime.start.p0(i64 4, ptr %5) #8
  call void @llvm.lifetime.start.p0(i64 8, ptr %6) #8
  store ptr null, ptr %6, align 8, !tbaa !4
  %12 = getelementptr inbounds nuw { i64, ptr }, ptr %4, i32 0, i32 0
  %13 = load i64, ptr %12, align 8
  %14 = getelementptr inbounds nuw { i64, ptr }, ptr %4, i32 0, i32 1
  %15 = load ptr, ptr %14, align 8
  %16 = call ptr @jv_string_value(i64 %13, ptr %15)
  %17 = call i64 @pathconf(ptr noundef %16, i32 noundef 4) #8
  %18 = trunc i64 %17 to i32
  store i32 %18, ptr %5, align 4, !tbaa !13
  %19 = load i32, ptr %5, align 4, !tbaa !13
  %20 = icmp sgt i32 %19, 0
  br i1 %20, label %21, label %25

21:                                               ; preds = %2
  %22 = load i32, ptr %5, align 4, !tbaa !13
  %23 = sext i32 %22 to i64
  %24 = call ptr @jv_mem_alloc(i64 noundef %23)
  store ptr %24, ptr %6, align 8, !tbaa !4
  br label %25

25:                                               ; preds = %21, %2
  call void @llvm.lifetime.start.p0(i64 8, ptr %7) #8
  %26 = getelementptr inbounds nuw { i64, ptr }, ptr %4, i32 0, i32 0
  %27 = load i64, ptr %26, align 8
  %28 = getelementptr inbounds nuw { i64, ptr }, ptr %4, i32 0, i32 1
  %29 = load ptr, ptr %28, align 8
  %30 = call ptr @jv_string_value(i64 %27, ptr %29)
  %31 = load ptr, ptr %6, align 8, !tbaa !4
  %32 = call ptr @realpath(ptr noundef %30, ptr noundef %31) #8
  store ptr %32, ptr %7, align 8, !tbaa !4
  %33 = load ptr, ptr %7, align 8, !tbaa !4
  %34 = icmp eq ptr %33, null
  br i1 %34, label %35, label %37

35:                                               ; preds = %25
  %36 = load ptr, ptr %6, align 8, !tbaa !4
  call void @free(ptr noundef %36) #8
  call void @llvm.memcpy.p0.p0.i64(ptr align 8 %3, ptr align 8 %4, i64 16, i1 false), !tbaa.struct !9
  store i32 1, ptr %8, align 4
  br label %49

37:                                               ; preds = %25
  %38 = getelementptr inbounds nuw { i64, ptr }, ptr %4, i32 0, i32 0
  %39 = load i64, ptr %38, align 8
  %40 = getelementptr inbounds nuw { i64, ptr }, ptr %4, i32 0, i32 1
  %41 = load ptr, ptr %40, align 8
  call void @jv_free(i64 %39, ptr %41)
  call void @llvm.lifetime.start.p0(i64 16, ptr %9) #8
  %42 = load ptr, ptr %7, align 8, !tbaa !4
  %43 = call { i64, ptr } @jv_string(ptr noundef %42)
  %44 = getelementptr inbounds nuw { i64, ptr }, ptr %9, i32 0, i32 0
  %45 = extractvalue { i64, ptr } %43, 0
  store i64 %45, ptr %44, align 8
  %46 = getelementptr inbounds nuw { i64, ptr }, ptr %9, i32 0, i32 1
  %47 = extractvalue { i64, ptr } %43, 1
  store ptr %47, ptr %46, align 8
  call void @llvm.memcpy.p0.p0.i64(ptr align 8 %4, ptr align 8 %9, i64 16, i1 false), !tbaa.struct !9
  call void @llvm.lifetime.end.p0(i64 16, ptr %9) #8
  %48 = load ptr, ptr %7, align 8, !tbaa !4
  call void @free(ptr noundef %48) #8
  call void @llvm.memcpy.p0.p0.i64(ptr align 8 %3, ptr align 8 %4, i64 16, i1 false), !tbaa.struct !9
  store i32 1, ptr %8, align 4
  br label %49

49:                                               ; preds = %37, %35
  call void @llvm.lifetime.end.p0(i64 8, ptr %7) #8
  call void @llvm.lifetime.end.p0(i64 8, ptr %6) #8
  call void @llvm.lifetime.end.p0(i64 4, ptr %5) #8
  %50 = load { i64, ptr }, ptr %3, align 8
  ret { i64, ptr } %50
}