; Function Attrs: nounwind uwtable
define dso_local { i64, ptr } @jq_realpath(i64 %0, ptr %1) local_unnamed_addr #0 {
  %3 = tail call ptr @jv_string_value(i64 %0, ptr %1) #13
  %4 = tail call i64 @pathconf(ptr noundef %3, i32 noundef 4) #13
  %5 = trunc i64 %4 to i32
  %6 = icmp sgt i32 %5, 0
  br i1 %6, label %7, label %10

7:                                                ; preds = %2
  %8 = and i64 %4, 2147483647
  %9 = tail call ptr @jv_mem_alloc(i64 noundef %8) #13
  br label %10

10:                                               ; preds = %7, %2
  %.0 = phi ptr [ %9, %7 ], [ null, %2 ]
  %11 = tail call ptr @jv_string_value(i64 %0, ptr %1) #13
  %12 = tail call ptr @realpath(ptr noundef %11, ptr noundef %.0) #13
  %13 = icmp eq ptr %12, null
  br i1 %13, label %14, label %17

14:                                               ; preds = %10
  tail call void @free(ptr noundef %.0) #13
  %15 = insertvalue { i64, ptr } poison, i64 %0, 0
  %16 = insertvalue { i64, ptr } %15, ptr %1, 1
  br label %19

17:                                               ; preds = %10
  tail call void @jv_free(i64 %0, ptr %1) #13
  %18 = tail call { i64, ptr } @jv_string(ptr noundef nonnull %12) #13
  tail call void @free(ptr noundef nonnull %12) #13
  br label %19

19:                                               ; preds = %17, %14
  %.fca.1.insert.merged = phi { i64, ptr } [ %16, %14 ], [ %18, %17 ]
  ret { i64, ptr } %.fca.1.insert.merged
}